; Function Attrs: mustprogress nounwind uwtable
define hidden noundef ptr @_ZNK15ciInstanceKlass11replay_nameEv(ptr nocapture noundef nonnull readonly align 8 dereferenceable(144) %0) local_unnamed_addr #0 align 2 {
  %2 = tail call align 8 ptr @llvm.threadlocal.address.p0(ptr align 8 @_ZN6Thread12_thr_currentE)
  %3 = load ptr, ptr %2, align 8
  %4 = getelementptr inbounds i8, ptr %3, i64 1808
  %5 = load ptr, ptr %4, align 8
  %6 = getelementptr inbounds i8, ptr %0, i64 16
  %7 = load ptr, ptr %6, align 8
  %8 = tail call noundef ptr @_ZNK5ciEnv11replay_nameEPK13InstanceKlass(ptr noundef nonnull align 8 dereferenceable(1265) %5, ptr noundef %7) #11
  ret ptr %8
}